Certificate:
    Data:
        Version: 3 (0x2)
        Serial Number: 4096 (0x1000)
        Signature Algorithm: md5WithRSAEncryption
        Issuer: C=US, ST=Utah, L=SLC, O=MSD, OU=2023, CN=Jakob/emailAddress=jakob.west.slcse@gmail.com
        Validity
            Not Before: Mar 15 21:35:45 2024 GMT
            Not After : Mar 15 21:35:45 2025 GMT
        Subject: C=US, ST=Utah, O=MSD, OU=2023, CN=JakobS/emailAddress=jakob.west.slcse@gmail.com
        Subject Public Key Info:
            Public Key Algorithm: rsaEncryption
                Public-Key: (4096 bit)
                Modulus:
                    00:9a:58:24:a1:7e:4e:c2:ed:76:09:70:cc:aa:dc:
                    c5:d5:9d:64:89:0d:7f:14:23:63:64:68:34:42:9e:
                    04:07:bf:9c:00:29:1a:df:0c:fd:29:95:cc:ae:55:
                    85:4d:da:48:4f:28:9b:7b:51:48:94:a6:71:db:10:
                    f7:a9:05:11:c5:52:69:ac:7f:dc:f3:40:26:d9:bf:
                    24:05:22:f3:e4:e7:2d:f5:f8:71:a8:60:be:87:96:
                    74:38:07:44:1b:aa:ea:ef:af:45:4b:2a:76:5f:30:
                    52:89:d8:4f:12:47:27:f5:66:4b:7c:b4:2c:4c:1f:
                    fd:c6:72:00:9f:3f:bf:79:46:47:0b:7c:c5:8e:9b:
                    45:99:36:bb:24:02:17:49:b1:0b:38:01:a7:25:9e:
                    b8:a8:fc:21:4e:ad:87:d7:92:aa:b2:42:7d:0a:e0:
                    ab:30:ac:8a:9b:f5:84:f4:03:1a:5c:60:6c:87:8a:
                    c5:21:48:f2:6d:87:a3:49:a4:bc:1b:90:e8:09:7e:
                    0a:ca:db:29:95:fb:cf:93:c6:92:60:e2:e5:76:34:
                    48:54:72:ee:7c:07:c5:11:b3:23:c5:43:d3:82:c9:
                    d4:0d:0c:48:fc:b0:c1:77:0f:90:2d:43:03:c4:1a:
                    a6:5d:9b:40:ad:9f:eb:52:2b:78:45:99:f7:fa:cf:
                    36:2a:bf:16:f4:c7:a3:51:f0:2b:be:f0:73:b4:cb:
                    c4:d4:54:71:cb:c9:cc:b5:9d:09:fa:ca:43:b1:f6:
                    7c:22:4f:09:f7:dd:d5:66:dc:9b:a0:7b:60:f9:21:
                    75:e4:55:c6:10:bc:c5:12:be:4f:66:57:ed:0b:48:
                    09:7d:62:1d:94:79:3d:d1:21:01:a8:8c:78:2c:98:
                    d2:3b:b8:82:ba:75:35:99:b5:d6:7b:e2:28:d7:da:
                    fb:95:f4:8b:86:1a:e6:1d:41:3b:ae:b0:2f:dd:49:
                    c1:b6:45:ec:27:0b:d1:1b:52:3a:c1:a5:ad:4c:d5:
                    d0:a9:37:6f:04:a4:60:ef:b5:73:bf:e4:35:a7:6b:
                    96:f5:03:97:d9:3d:47:23:bc:4b:b7:c3:e4:cb:56:
                    b8:b0:7a:76:c6:8a:15:99:78:bc:db:b1:ad:ff:18:
                    c2:6c:0e:f1:8b:f0:38:92:b1:85:9f:d1:2f:ec:ac:
                    19:de:31:9e:e8:8e:24:b6:f5:23:0b:1f:05:04:d5:
                    82:1b:bd:07:f1:45:0e:d9:0b:1a:18:8a:2e:34:d2:
                    49:27:b2:1f:43:8c:d3:c1:0f:48:b7:61:07:fa:2f:
                    eb:e3:0f:03:95:64:67:00:3d:63:3b:4e:0c:b4:09:
                    c0:f9:84:06:b9:8f:b3:ce:9c:ec:97:b2:e5:be:2f:
                    b7:ee:85
                Exponent: 65537 (0x10001)
        X509v3 extensions:
            X509v3 Basic Constraints: 
                CA:FALSE
            Netscape Comment: 
                OpenSSL Generated Certificate
            X509v3 Subject Key Identifier: 
                4B:E0:FC:42:A5:11:15:39:D5:2C:4F:71:60:DF:51:80:8B:87:59:7C
            X509v3 Authority Key Identifier: 
                keyid:4D:63:55:BC:D2:19:69:F7:B3:1C:12:16:50:D2:6E:1A:B2:D7:19:7D
                DirName:/C=US/ST=Utah/L=SLC/O=MSD/OU=2023/CN=Jakob/emailAddress=jakob.west.slcse@gmail.com
                serial:09:D9:DE:5E:B6:B3:69:42:9B:DE:BC:38:BB:9C:F3:04:92:0C:FB:6F
    Signature Algorithm: md5WithRSAEncryption
    Signature Value:
        1a:d9:71:13:bc:2f:6f:30:f5:d7:20:84:fb:46:cf:b1:1f:8c:
        cd:40:5f:f6:ab:bf:f5:90:26:01:a6:51:a0:6c:b0:19:6c:3e:
        b2:f1:c9:d1:1c:42:03:d8:d1:fc:6a:5e:39:ba:0a:5f:34:61:
        90:0b:70:db:e4:58:19:c5:81:2c:8b:a8:4a:16:e0:4c:79:ff:
        59:61:de:9b:fb:0f:fa:92:d9:5f:08:f8:41:46:69:62:8d:be:
        fa:8d:35:13:eb:ca:b9:a1:7d:cd:db:a7:9e:ce:08:a2:56:95:
        91:3c:47:5b:cf:3d:56:72:b9:f4:c0:51:01:4c:69:45:57:46:
        39:84:17:72:a1:af:80:89:a2:1b:e6:8a:1d:ce:9f:91:48:3e:
        7f:e0:a0:23:12:93:65:bd:b6:15:48:f5:3f:3f:bd:d5:cc:9b:
        91:47:49:16:ef:e6:8b:9d:39:62:56:98:93:cc:38:bb:c6:fb:
        1f:80:c1:57:8e:7c:f4:95:c2:35:56:51:ab:65:8b:c1:28:2d:
        1f:98:c5:ea:41:4c:df:2d:ea:0e:7f:8f:a9:4c:3a:2f:40:4a:
        db:4c:cb:62:0a:ae:fa:ab:96:57:cd:54:1b:97:dc:f4:1d:fe:
        8b:cb:f2:ad:a7:3b:55:84:2a:35:50:a7:54:bc:63:3e:39:aa:
        4b:5a:b1:df:98:29:2f:fe:7e:99:2d:0a:1e:68:59:6f:32:40:
        46:90:5b:52:60:4f:f3:a3:6c:01:b5:bf:37:1a:43:52:b2:87:
        5b:11:f1:e0:e4:a4:7a:96:d5:f2:9f:bd:2c:61:f1:48:6e:6a:
        88:c8:8c:21:c7:66:b4:00:65:33:77:86:dc:62:04:f6:e3:1a:
        d9:35:43:80:bd:13:fd:2b:0b:13:40:da:44:2c:aa:1c:ad:ec:
        8b:08:03:6a:59:1c:be:de:eb:ae:86:57:8a:bb:6b:14:59:29:
        2b:32:6e:44:ee:5c:37:b2:4f:26:82:3b:a1:bd:5e:14:3f:af:
        7d:87:7a:b2:f0:fc:c6:c2:6f:fe:77:54:33:f1:63:b7:cd:54:
        57:c0:da:b5:a4:8d:24:52:7a:7b:88:13:da:aa:80:b5:ea:21:
        38:16:31:81:1b:8e:85:4b:5c:52:ef:d9:c0:4e:c2:28:99:9e:
        03:b9:9a:54:41:17:a8:1b:d0:74:e4:c8:af:9b:07:59:bf:a2:
        06:06:5d:dc:bc:74:34:30:40:17:7d:91:14:3a:45:4e:85:aa:
        4e:1c:38:bb:8e:a3:4f:f0:fd:34:3d:25:aa:ca:dd:9e:20:13:
        1d:ac:61:8e:41:6b:da:e1:86:86:b3:cd:d0:4d:b5:fd:9c:c5:
        db:f9:54:ac:eb:c8:2f:61
-----BEGIN CERTIFICATE-----
MIIGlzCCBH+gAwIBAgICEAAwDQYJKoZIhvcNAQEEBQAwgYIxCzAJBgNVBAYTAlVT
MQ0wCwYDVQQIDARVdGFoMQwwCgYDVQQHDANTTEMxDDAKBgNVBAoMA01TRDENMAsG
A1UECwwEMjAyMzEOMAwGA1UEAwwFSmFrb2IxKTAnBgkqhkiG9w0BCQEWGmpha29i
Lndlc3Quc2xjc2VAZ21haWwuY29tMB4XDTI0MDMxNTIxMzU0NVoXDTI1MDMxNTIx
MzU0NVowdTELMAkGA1UEBhMCVVMxDTALBgNVBAgMBFV0YWgxDDAKBgNVBAoMA01T
RDENMAsGA1UECwwEMjAyMzEPMA0GA1UEAwwGSmFrb2JTMSkwJwYJKoZIhvcNAQkB
FhpqYWtvYi53ZXN0LnNsY3NlQGdtYWlsLmNvbTCCAiIwDQYJKoZIhvcNAQEBBQAD
ggIPADCCAgoCggIBAJpYJKF+TsLtdglwzKrcxdWdZIkNfxQjY2RoNEKeBAe/nAAp
Gt8M/SmVzK5VhU3aSE8om3tRSJSmcdsQ96kFEcVSaax/3PNAJtm/JAUi8+TnLfX4
cahgvoeWdDgHRBuq6u+vRUsqdl8wUonYTxJHJ/VmS3y0LEwf/cZyAJ8/v3lGRwt8
xY6bRZk2uyQCF0mxCzgBpyWeuKj8IU6th9eSqrJCfQrgqzCsipv1hPQDGlxgbIeK
xSFI8m2Ho0mkvBuQ6Al+CsrbKZX7z5PGkmDi5XY0SFRy7nwHxRGzI8VD04LJ1A0M
SPywwXcPkC1DA8Qapl2bQK2f61IreEWZ9/rPNiq/FvTHo1HwK77wc7TLxNRUccvJ
zLWdCfrKQ7H2fCJPCffd1Wbcm6B7YPkhdeRVxhC8xRK+T2ZX7QtICX1iHZR5PdEh
AaiMeCyY0ju4grp1NZm11nviKNfa+5X0i4Ya5h1BO66wL91JwbZF7CcL0RtSOsGl
rUzV0Kk3bwSkYO+1c7/kNadrlvUDl9k9RyO8S7fD5MtWuLB6dsaKFZl4vNuxrf8Y
wmwO8YvwOJKxhZ/RL+ysGd4xnuiOJLb1IwsfBQTVghu9B/FFDtkLGhiKLjTSSSey
H0OM08EPSLdhB/ov6+MPA5VkZwA9YztODLQJwPmEBrmPs86c7Jey5b4vt+6FAgMB
AAGjggEhMIIBHTAJBgNVHRMEAjAAMCwGCWCGSAGG+EIBDQQfFh1PcGVuU1NMIEdl
bmVyYXRlZCBDZXJ0aWZpY2F0ZTAdBgNVHQ4EFgQUS+D8QqURFTnVLE9xYN9RgIuH
WXwwgcIGA1UdIwSBujCBt4AUTWNVvNIZafezHBIWUNJuGrLXGX2hgYikgYUwgYIx
CzAJBgNVBAYTAlVTMQ0wCwYDVQQIDARVdGFoMQwwCgYDVQQHDANTTEMxDDAKBgNV
BAoMA01TRDENMAsGA1UECwwEMjAyMzEOMAwGA1UEAwwFSmFrb2IxKTAnBgkqhkiG
9w0BCQEWGmpha29iLndlc3Quc2xjc2VAZ21haWwuY29tghQJ2d5etrNpQpvevDi7
nPMEkgz7bzANBgkqhkiG9w0BAQQFAAOCAgEAGtlxE7wvbzD11yCE+0bPsR+MzUBf
9qu/9ZAmAaZRoGywGWw+svHJ0RxCA9jR/GpeOboKXzRhkAtw2+RYGcWBLIuoShbg
THn/WWHem/sP+pLZXwj4QUZpYo2++o01E+vKuaF9zdunns4IolaVkTxHW889VnK5
9MBRAUxpRVdGOYQXcqGvgImiG+aKHc6fkUg+f+CgIxKTZb22FUj1Pz+91cybkUdJ
Fu/mi505YlaYk8w4u8b7H4DBV4589JXCNVZRq2WLwSgtH5jF6kFM3y3qDn+PqUw6
L0BK20zLYgqu+quWV81UG5fc9B3+i8vyrac7VYQqNVCnVLxjPjmqS1qx35gpL/5+
mS0KHmhZbzJARpBbUmBP86NsAbW/NxpDUrKHWxHx4OSkepbV8p+9LGHxSG5qiMiM
IcdmtABlM3eG3GIE9uMa2TVDgL0T/SsLE0DaRCyqHK3siwgDalkcvt7rroZXirtr
FFkpKzJuRO5cN7JPJoI7ob1eFD+vfYd6svD8xsJv/ndUM/Fjt81UV8DataSNJFJ6
e4gT2qqAteohOBYxgRuOhUtcUu/ZwE7CKJmeA7maVEEXqBvQdOTIr5sHWb+iBgZd
3Lx0NDBAF32RFDpFToWqThw4u46jT/D9ND0lqsrdniATHaxhjkFr2uGGhrPN0E21
/ZzF2/lUrOvIL2E=
-----END CERTIFICATE-----
