Certificate:
    Data:
        Version: 3 (0x2)
        Serial Number: 4097 (0x1001)
        Signature Algorithm: md5WithRSAEncryption
        Issuer: C=US, ST=Utah, L=SLC, O=MSD, OU=2023, CN=Jakob/emailAddress=jakob.west.slcse@gmail.com
        Validity
            Not Before: Mar 15 21:36:24 2024 GMT
            Not After : Mar 15 21:36:24 2025 GMT
        Subject: C=US, ST=Utah, O=MSD, OU=2023, CN=WestC/emailAddress=jakob.west.slcse@gmail.com
        Subject Public Key Info:
            Public Key Algorithm: rsaEncryption
                Public-Key: (4096 bit)
                Modulus:
                    00:d7:3b:cb:82:dd:0e:e9:6c:33:91:c3:70:30:d5:
                    95:0a:fb:0c:b2:45:61:ae:e2:17:34:c0:34:d7:a8:
                    ce:8d:f4:c1:76:e1:40:6e:94:44:cc:28:99:38:0f:
                    d7:80:fa:b0:47:ba:61:04:7b:5d:12:e8:d2:bd:34:
                    c0:a0:96:13:a9:30:50:a3:d0:06:5c:3c:f4:ea:4c:
                    ae:5c:cd:01:61:33:e0:4b:c4:d7:0d:40:27:d6:07:
                    3c:07:44:7c:81:e4:a3:f9:f3:81:49:77:ae:92:1c:
                    ce:e7:bc:3c:7b:96:fb:56:7f:83:f9:d1:44:0c:82:
                    59:4d:7f:34:41:23:63:28:bd:3f:48:d0:09:7e:42:
                    f5:2d:ad:b3:98:fa:3c:cf:03:4f:bb:c3:ce:b5:86:
                    b5:9d:85:42:18:ce:03:18:5e:aa:fb:26:20:9a:ab:
                    a8:66:5f:b8:e9:aa:88:f1:79:91:d8:ba:ca:28:fc:
                    cd:73:8b:2c:4e:3a:30:92:96:96:b1:59:68:23:57:
                    be:82:a7:45:8a:f6:6e:cb:2f:d6:bb:b8:2e:a1:bb:
                    7a:74:8c:79:86:9c:ce:7a:d8:70:36:d0:72:e0:5a:
                    fb:e3:f5:fd:22:26:59:b9:a7:c0:a0:2b:4f:c1:d2:
                    06:4d:ef:3c:64:91:3d:eb:aa:8e:44:ae:3e:f5:4d:
                    4e:40:27:a8:4b:9d:fc:8e:90:b8:18:90:49:73:84:
                    ea:14:46:fa:9a:c1:36:27:5c:6a:00:cc:ce:01:a1:
                    af:8f:de:55:1a:90:90:05:67:2e:fb:2c:9e:30:d9:
                    b0:5d:60:7b:1f:c3:82:79:30:02:a0:30:ab:7e:d2:
                    29:11:52:2b:51:16:2e:b2:b5:de:2d:c2:3c:1c:47:
                    44:4c:c2:59:fa:ee:da:fe:bd:3d:56:b6:6c:95:27:
                    ca:b8:a1:1e:91:db:d1:46:f2:20:49:6f:b8:54:31:
                    3c:2c:cd:28:ec:67:92:40:9b:20:0a:a0:00:6a:c4:
                    71:ec:ee:bf:ab:5e:a6:2d:fb:2b:f1:d0:77:95:78:
                    32:43:be:64:29:40:61:cb:d3:d9:28:a8:58:0b:80:
                    6e:5b:d0:6a:0a:f2:7c:e7:5b:6c:4e:ef:33:90:d7:
                    63:62:22:ed:51:9b:fe:7c:5d:2f:9c:4d:b6:17:b7:
                    09:36:a6:17:e4:73:38:63:1c:15:be:74:38:86:28:
                    4c:d7:6c:4a:3b:fd:bd:ef:17:99:3a:19:47:a4:44:
                    a4:86:c6:90:86:15:9d:45:62:92:b2:9d:92:8e:7a:
                    15:dc:5c:60:cd:ef:2e:ad:e2:f1:e5:ff:4c:95:2a:
                    06:aa:88:54:02:1f:87:8a:ea:6b:60:b2:e8:23:30:
                    bd:8e:47
                Exponent: 65537 (0x10001)
        X509v3 extensions:
            X509v3 Basic Constraints: 
                CA:FALSE
            Netscape Comment: 
                OpenSSL Generated Certificate
            X509v3 Subject Key Identifier: 
                50:4C:C3:02:E9:3C:A4:8B:F3:80:00:9D:AE:2B:0F:EB:41:1A:6D:44
            X509v3 Authority Key Identifier: 
                keyid:4D:63:55:BC:D2:19:69:F7:B3:1C:12:16:50:D2:6E:1A:B2:D7:19:7D
                DirName:/C=US/ST=Utah/L=SLC/O=MSD/OU=2023/CN=Jakob/emailAddress=jakob.west.slcse@gmail.com
                serial:09:D9:DE:5E:B6:B3:69:42:9B:DE:BC:38:BB:9C:F3:04:92:0C:FB:6F
    Signature Algorithm: md5WithRSAEncryption
    Signature Value:
        85:81:da:96:41:e2:ff:cb:2e:64:9f:49:67:ea:a9:51:19:98:
        c5:86:c9:db:ad:f2:ad:95:00:28:3d:31:39:ef:59:ef:55:76:
        45:79:e9:d8:af:85:14:17:77:3f:93:cf:6c:05:05:e7:ea:ce:
        e6:be:a9:ae:70:3b:cf:33:43:cb:3a:84:22:e9:99:8b:a4:70:
        a1:2e:d1:af:e7:46:e9:77:b3:04:90:af:c8:0d:c0:fa:8d:21:
        be:2f:63:08:b5:a6:f9:69:e7:91:3c:2b:5a:24:50:e9:ae:d1:
        5d:94:02:92:75:c8:68:4b:0e:62:2c:8d:70:ce:6d:39:3f:4f:
        ca:37:2e:ce:4c:0a:cd:9e:dd:44:bc:d0:d7:24:25:df:0a:cd:
        fd:bc:65:f6:be:dc:46:78:f1:68:b5:d5:4f:d2:df:fe:fb:f0:
        b3:88:e3:a0:60:ee:92:f5:d3:75:5f:a7:28:18:2b:56:32:5f:
        fa:9a:38:94:bd:95:9d:e0:b6:2c:03:53:fd:5f:a2:cc:16:c7:
        b7:45:e5:53:12:69:57:26:41:8f:74:a8:6c:68:18:e3:b9:26:
        53:de:31:51:96:a7:d7:d9:ab:d3:85:3e:67:26:10:59:ac:16:
        a4:52:0a:d9:39:55:24:a4:24:e7:13:ee:2a:19:f8:60:8f:75:
        8e:31:3a:5d:93:4d:25:e2:b3:5b:37:a7:e9:1c:49:05:a4:46:
        d8:a5:c1:ab:f6:e1:f9:1d:ad:66:78:79:29:32:8c:6b:39:10:
        6a:e7:42:43:ae:20:95:51:a6:94:aa:99:1e:fa:cf:90:89:62:
        9a:19:c4:9e:10:82:79:ac:64:03:63:49:dc:d9:e9:69:35:58:
        da:e3:81:1a:ac:a5:1d:8e:7a:e1:41:a5:2d:18:96:9f:71:10:
        60:b2:e8:2a:3e:4d:4e:89:6f:62:ab:27:50:6f:a6:98:df:c8:
        86:1e:77:24:fd:69:a0:a5:23:dd:c8:5e:d8:a8:b6:90:03:20:
        c2:7d:2c:75:5e:eb:c5:a8:95:0e:2e:3c:61:63:f9:f2:d7:58:
        5b:e0:ef:f6:14:24:71:8d:97:b8:7b:5e:c3:32:7e:1f:ee:69:
        76:91:eb:b6:62:1a:95:2d:2a:7f:ca:02:58:c1:97:8d:ab:cc:
        7f:6a:89:df:a7:fd:2d:44:3d:6a:95:c8:08:f3:7f:f4:16:f5:
        84:c0:86:ea:11:82:36:9d:b9:88:6b:8e:c7:bc:a2:21:a0:d2:
        79:17:4c:f2:e1:4a:1b:2f:2b:fc:58:69:86:de:8f:3e:50:f1:
        cd:69:c6:01:cc:31:bc:1d:71:6b:70:1f:78:9b:7a:4e:2f:84:
        c0:66:76:50:77:80:e1:08
-----BEGIN CERTIFICATE-----
MIIGljCCBH6gAwIBAgICEAEwDQYJKoZIhvcNAQEEBQAwgYIxCzAJBgNVBAYTAlVT
MQ0wCwYDVQQIDARVdGFoMQwwCgYDVQQHDANTTEMxDDAKBgNVBAoMA01TRDENMAsG
A1UECwwEMjAyMzEOMAwGA1UEAwwFSmFrb2IxKTAnBgkqhkiG9w0BCQEWGmpha29i
Lndlc3Quc2xjc2VAZ21haWwuY29tMB4XDTI0MDMxNTIxMzYyNFoXDTI1MDMxNTIx
MzYyNFowdDELMAkGA1UEBhMCVVMxDTALBgNVBAgMBFV0YWgxDDAKBgNVBAoMA01T
RDENMAsGA1UECwwEMjAyMzEOMAwGA1UEAwwFV2VzdEMxKTAnBgkqhkiG9w0BCQEW
Gmpha29iLndlc3Quc2xjc2VAZ21haWwuY29tMIICIjANBgkqhkiG9w0BAQEFAAOC
Ag8AMIICCgKCAgEA1zvLgt0O6WwzkcNwMNWVCvsMskVhruIXNMA016jOjfTBduFA
bpREzCiZOA/XgPqwR7phBHtdEujSvTTAoJYTqTBQo9AGXDz06kyuXM0BYTPgS8TX
DUAn1gc8B0R8geSj+fOBSXeukhzO57w8e5b7Vn+D+dFEDIJZTX80QSNjKL0/SNAJ
fkL1La2zmPo8zwNPu8POtYa1nYVCGM4DGF6q+yYgmquoZl+46aqI8XmR2LrKKPzN
c4ssTjowkpaWsVloI1e+gqdFivZuyy/Wu7guobt6dIx5hpzOethwNtBy4Fr74/X9
IiZZuafAoCtPwdIGTe88ZJE966qORK4+9U1OQCeoS538jpC4GJBJc4TqFEb6msE2
J1xqAMzOAaGvj95VGpCQBWcu+yyeMNmwXWB7H8OCeTACoDCrftIpEVIrURYusrXe
LcI8HEdETMJZ+u7a/r09VrZslSfKuKEekdvRRvIgSW+4VDE8LM0o7GeSQJsgCqAA
asRx7O6/q16mLfsr8dB3lXgyQ75kKUBhy9PZKKhYC4BuW9BqCvJ851tsTu8zkNdj
YiLtUZv+fF0vnE22F7cJNqYX5HM4YxwVvnQ4hihM12xKO/297xeZOhlHpESkhsaQ
hhWdRWKSsp2SjnoV3Fxgze8ureLx5f9MlSoGqohUAh+HiuprYLLoIzC9jkcCAwEA
AaOCASEwggEdMAkGA1UdEwQCMAAwLAYJYIZIAYb4QgENBB8WHU9wZW5TU0wgR2Vu
ZXJhdGVkIENlcnRpZmljYXRlMB0GA1UdDgQWBBRQTMMC6Tyki/OAAJ2uKw/rQRpt
RDCBwgYDVR0jBIG6MIG3gBRNY1W80hlp97McEhZQ0m4astcZfaGBiKSBhTCBgjEL
MAkGA1UEBhMCVVMxDTALBgNVBAgMBFV0YWgxDDAKBgNVBAcMA1NMQzEMMAoGA1UE
CgwDTVNEMQ0wCwYDVQQLDAQyMDIzMQ4wDAYDVQQDDAVKYWtvYjEpMCcGCSqGSIb3
DQEJARYaamFrb2Iud2VzdC5zbGNzZUBnbWFpbC5jb22CFAnZ3l62s2lCm968OLuc
8wSSDPtvMA0GCSqGSIb3DQEBBAUAA4ICAQCFgdqWQeL/yy5kn0ln6qlRGZjFhsnb
rfKtlQAoPTE571nvVXZFeenYr4UUF3c/k89sBQXn6s7mvqmucDvPM0PLOoQi6ZmL
pHChLtGv50bpd7MEkK/IDcD6jSG+L2MItab5aeeRPCtaJFDprtFdlAKSdchoSw5i
LI1wzm05P0/KNy7OTArNnt1EvNDXJCXfCs39vGX2vtxGePFotdVP0t/++/CziOOg
YO6S9dN1X6coGCtWMl/6mjiUvZWd4LYsA1P9X6LMFse3ReVTEmlXJkGPdKhsaBjj
uSZT3jFRlqfX2avThT5nJhBZrBakUgrZOVUkpCTnE+4qGfhgj3WOMTpdk00l4rNb
N6fpHEkFpEbYpcGr9uH5Ha1meHkpMoxrORBq50JDriCVUaaUqpke+s+QiWKaGcSe
EIJ5rGQDY0nc2elpNVja44EarKUdjnrhQaUtGJafcRBgsugqPk1OiW9iqydQb6aY
38iGHnck/WmgpSPdyF7YqLaQAyDCfSx1XuvFqJUOLjxhY/ny11hb4O/2FCRxjZe4
e17DMn4f7ml2keu2YhqVLSp/ygJYwZeNq8x/aonfp/0tRD1qlcgI83/0FvWEwIbq
EYI2nbmIa47HvKIhoNJ5F0zy4UobLyv8WGmG3o8+UPHNacYBzDG8HXFrcB94m3pO
L4TAZnZQd4DhCA==
-----END CERTIFICATE-----
